target datalayout = "e-m:e-p270:32:32-p271:32:32-p272:64:64-i64:64-i128:128-f80:128-n8:16:32:64-S128"
target triple = "x86_64-pc-linux-gnu"

%"class.LIEF::MachO::ChainedBindingInfo" = type { %"class.LIEF::MachO::BindingInfo", i32, i32, i32, i32, %union.anon }
%"class.LIEF::MachO::BindingInfo" = type { %"class.LIEF::Object", ptr, ptr, i32, i64, i8, ptr, i64 }
%"class.LIEF::Object" = type { ptr }
%union.anon = type { ptr }

; Function Attrs: mustprogress nounwind uwtable
define void @_ZN4LIEF5MachO18ChainedBindingInfo5clearEv(ptr noundef nonnull align 8 dereferenceable(88) %0) #5 align 2 {
  %2 = alloca ptr, align 8
  store ptr %0, ptr %2, align 8
  %3 = load ptr, ptr %2, align 8
  %4 = getelementptr inbounds %"class.LIEF::MachO::ChainedBindingInfo", ptr %3, i32 0, i32 4
  %5 = load i32, ptr %4, align 4
  switch i32 %5, label %43 [
    i32 2, label %6
    i32 1, label %12
    i32 3, label %18
    i32 4, label %24
    i32 6, label %30
    i32 5, label %36
    i32 0, label %42
  ]

6:                                                ; preds = %1
  %7 = getelementptr inbounds %"class.LIEF::MachO::ChainedBindingInfo", ptr %3, i32 0, i32 5
  %8 = load ptr, ptr %7, align 8
  %9 = icmp eq ptr %8, null
  br i1 %9, label %11, label %10

10:                                               ; preds = %6
  call void @_ZdlPv(ptr noundef %8) #11
  br label %11

11:                                               ; preds = %10, %6
  br label %43

12:                                               ; preds = %1
  %13 = getelementptr inbounds %"class.LIEF::MachO::ChainedBindingInfo", ptr %3, i32 0, i32 5
  %14 = load ptr, ptr %13, align 8
  %15 = icmp eq ptr %14, null
  br i1 %15, label %17, label %16

16:                                               ; preds = %12
  call void @_ZdlPv(ptr noundef %14) #11
  br label %17

17:                                               ; preds = %16, %12
  br label %43

18:                                               ; preds = %1
  %19 = getelementptr inbounds %"class.LIEF::MachO::ChainedBindingInfo", ptr %3, i32 0, i32 5
  %20 = load ptr, ptr %19, align 8
  %21 = icmp eq ptr %20, null
  br i1 %21, label %23, label %22

22:                                               ; preds = %18
  call void @_ZdlPv(ptr noundef %20) #11
  br label %23

23:                                               ; preds = %22, %18
  br label %43

24:                                               ; preds = %1
  %25 = getelementptr inbounds %"class.LIEF::MachO::ChainedBindingInfo", ptr %3, i32 0, i32 5
  %26 = load ptr, ptr %25, align 8
  %27 = icmp eq ptr %26, null
  br i1 %27, label %29, label %28

28:                                               ; preds = %24
  call void @_ZdlPv(ptr noundef %26) #11
  br label %29

29:                                               ; preds = %28, %24
  br label %43

30:                                               ; preds = %1
  %31 = getelementptr inbounds %"class.LIEF::MachO::ChainedBindingInfo", ptr %3, i32 0, i32 5
  %32 = load ptr, ptr %31, align 8
  %33 = icmp eq ptr %32, null
  br i1 %33, label %35, label %34

34:                                               ; preds = %30
  call void @_ZdlPv(ptr noundef %32) #11
  br label %35

35:                                               ; preds = %34, %30
  br label %43

36:                                               ; preds = %1
  %37 = getelementptr inbounds %"class.LIEF::MachO::ChainedBindingInfo", ptr %3, i32 0, i32 5
  %38 = load ptr, ptr %37, align 8
  %39 = icmp eq ptr %38, null
  br i1 %39, label %41, label %40

40:                                               ; preds = %36
  call void @_ZdlPv(ptr noundef %38) #11
  br label %41

41:                                               ; preds = %40, %36
  br label %43

42:                                               ; preds = %1
  br label %43

43:                                               ; preds = %42, %41, %35, %29, %23, %17, %11, %1
  %44 = getelementptr inbounds %"class.LIEF::MachO::ChainedBindingInfo", ptr %3, i32 0, i32 4
  store i32 0, ptr %44, align 4
  ret void
}

; Function Attrs: mustprogress uwtable
define void @_ZN4LIEF5MachO18ChainedBindingInfo3setERKNS0_7details33dyld_chained_ptr_arm64e_auth_bindE(ptr noundef nonnull align 8 dereferenceable(88) %0, ptr noundef nonnull align 8 dereferenceable(8) %1) #0 align 2 {
  %3 = alloca ptr, align 8
  %4 = alloca ptr, align 8
  store ptr %0, ptr %3, align 8
  store ptr %1, ptr %4, align 8
  %5 = load ptr, ptr %3, align 8
  call void @_ZN4LIEF5MachO18ChainedBindingInfo5clearEv(ptr noundef nonnull align 8 dereferenceable(88) %5)
  %6 = getelementptr inbounds %"class.LIEF::MachO::ChainedBindingInfo", ptr %5, i32 0, i32 4
  store i32 2, ptr %6, align 4
  %7 = call noalias noundef nonnull ptr @_Znwm(i64 noundef 8) #8
  %8 = load ptr, ptr %4, align 8
  call void @llvm.memcpy.p0.p0.i64(ptr align 8 %7, ptr align 8 %8, i64 8, i1 false)
  %9 = getelementptr inbounds %"class.LIEF::MachO::ChainedBindingInfo", ptr %5, i32 0, i32 5
  store ptr %7, ptr %9, align 8
  ret void
}